target datalayout = "e-m:e-p270:32:32-p271:32:32-p272:64:64-i64:64-i128:128-f80:128-n8:16:32:64-S128"
target triple = "x86_64-unknown-linux-gnu"

%struct.SemihostingConsole = type { %struct.CharBackend, ptr, ptr, i8, %struct.Fifo8 }
%struct.CharBackend = type { ptr, ptr, ptr, ptr, ptr, ptr, i32, i32 }
%struct.Fifo8 = type { ptr, i32, i32, i32 }

@.str = private unnamed_addr constant [30 x i8] c"../qemu/semihosting/console.c\00", align 1
@.str.1 = private unnamed_addr constant [29 x i8] c"qemu_mutex_iothread_locked()\00", align 1
@__func__.console_can_read = private unnamed_addr constant [17 x i8] c"console_can_read\00", align 1

; Function Attrs: nounwind sspstrong uwtable
define internal i32 @console_can_read(ptr noundef %opaque) #0 {
entry:
  %opaque.addr = alloca ptr, align 8
  %c = alloca ptr, align 8
  store ptr %opaque, ptr %opaque.addr, align 8
  %0 = load ptr, ptr %opaque.addr, align 8
  store ptr %0, ptr %c, align 8
  br label %do.body

do.body:                                          ; preds = %entry
  %call = call zeroext i1 @qemu_mutex_iothread_locked()
  br i1 %call, label %if.then, label %if.else

if.then:                                          ; preds = %do.body
  br label %if.end

if.else:                                          ; preds = %do.body
  call void @g_assertion_message_expr(ptr noundef null, ptr noundef @.str, i32 noundef 46, ptr noundef @__func__.console_can_read, ptr noundef @.str.1) #3
  unreachable

if.end:                                           ; preds = %if.then
  br label %do.end

do.end:                                           ; preds = %if.end
  %1 = load ptr, ptr %c, align 8
  %fifo = getelementptr inbounds %struct.SemihostingConsole, ptr %1, i32 0, i32 4
  %call1 = call i32 @fifo8_num_free(ptr noundef %fifo)
  ret i32 %call1
}