; Function Attrs: nounwind sspstrong uwtable
define internal i32 @console_can_read(ptr noundef %opaque) #0 {
entry:
  %call = tail call zeroext i1 @qemu_mutex_iothread_locked() #5
  br i1 %call, label %do.end, label %if.else

if.else:                                          ; preds = %entry
  tail call void @g_assertion_message_expr(ptr noundef null, ptr noundef nonnull @.str, i32 noundef 46, ptr noundef nonnull @__func__.console_can_read, ptr noundef nonnull @.str.1) #6
  unreachable

do.end:                                           ; preds = %entry
  %fifo = getelementptr inbounds nuw i8, ptr %opaque, i64 80
  %call1 = tail call i32 @fifo8_num_free(ptr noundef nonnull %fifo) #5
  ret i32 %call1
}